target datalayout = "e-m:e-p270:32:32-p271:32:32-p272:64:64-i64:64-i128:128-f80:128-n8:16:32:64-S128"
target triple = "x86_64-pc-linux-gnu"

%struct._PyJumpTargetLabel = type { i32 }
%struct._PyCfgBuilder = type { ptr, ptr, ptr, %struct._PyJumpTargetLabel }
%struct._PyCfgBasicblock = type { ptr, %struct._PyJumpTargetLabel, ptr, ptr, ptr, i32, i32, i64, i32, i32, i8 }

; Function Attrs: nounwind uwtable
define internal ptr @cfg_builder_new_block(ptr noundef %0) #0 {
  %2 = alloca ptr, align 8
  %3 = alloca ptr, align 8
  %4 = alloca ptr, align 8
  %5 = alloca i32, align 4
  %6 = alloca %struct._PyJumpTargetLabel, align 4
  store ptr %0, ptr %3, align 8, !tbaa !4
  call void @llvm.lifetime.start.p0(i64 8, ptr %4) #7
  %7 = call ptr @PyMem_Calloc(i64 noundef 1, i64 noundef 72)
  store ptr %7, ptr %4, align 8, !tbaa !14
  %8 = load ptr, ptr %4, align 8, !tbaa !14
  %9 = icmp eq ptr %8, null
  br i1 %9, label %10, label %12

10:                                               ; preds = %1
  %11 = call ptr @PyErr_NoMemory()
  store ptr null, ptr %2, align 8
  store i32 1, ptr %5, align 4
  br label %25

12:                                               ; preds = %1
  %13 = load ptr, ptr %3, align 8, !tbaa !4
  %14 = getelementptr inbounds nuw %struct._PyCfgBuilder, ptr %13, i32 0, i32 1
  %15 = load ptr, ptr %14, align 8, !tbaa !9
  %16 = load ptr, ptr %4, align 8, !tbaa !14
  %17 = getelementptr inbounds nuw %struct._PyCfgBasicblock, ptr %16, i32 0, i32 0
  store ptr %15, ptr %17, align 8, !tbaa !25
  %18 = load ptr, ptr %4, align 8, !tbaa !14
  %19 = load ptr, ptr %3, align 8, !tbaa !4
  %20 = getelementptr inbounds nuw %struct._PyCfgBuilder, ptr %19, i32 0, i32 1
  store ptr %18, ptr %20, align 8, !tbaa !9
  %21 = load ptr, ptr %4, align 8, !tbaa !14
  %22 = getelementptr inbounds nuw %struct._PyCfgBasicblock, ptr %21, i32 0, i32 1
  %23 = getelementptr inbounds nuw %struct._PyJumpTargetLabel, ptr %6, i32 0, i32 0
  store i32 -1, ptr %23, align 4, !tbaa !17
  call void @llvm.memcpy.p0.p0.i64(ptr align 8 %22, ptr align 4 %6, i64 4, i1 false), !tbaa.struct !18
  %24 = load ptr, ptr %4, align 8, !tbaa !14
  store ptr %24, ptr %2, align 8
  store i32 1, ptr %5, align 4
  br label %25

25:                                               ; preds = %12, %10
  call void @llvm.lifetime.end.p0(i64 8, ptr %4) #7
  %26 = load ptr, ptr %2, align 8
  ret ptr %26
}

; Function Attrs: nounwind uwtable
define internal i32 @init_cfg_builder(ptr noundef %0) #0 {
  %2 = alloca i32, align 4
  %3 = alloca ptr, align 8
  %4 = alloca ptr, align 8
  %5 = alloca i32, align 4
  %6 = alloca %struct._PyJumpTargetLabel, align 4
  store ptr %0, ptr %3, align 8, !tbaa !4
  %7 = load ptr, ptr %3, align 8, !tbaa !4
  %8 = getelementptr inbounds nuw %struct._PyCfgBuilder, ptr %7, i32 0, i32 1
  store ptr null, ptr %8, align 8, !tbaa !9
  call void @llvm.lifetime.start.p0(i64 8, ptr %4) #7
  %9 = load ptr, ptr %3, align 8, !tbaa !4
  %10 = call ptr @cfg_builder_new_block(ptr noundef %9)
  store ptr %10, ptr %4, align 8, !tbaa !14
  %11 = load ptr, ptr %4, align 8, !tbaa !14
  %12 = icmp eq ptr %11, null
  br i1 %12, label %13, label %14

13:                                               ; preds = %1
  store i32 -1, ptr %2, align 4
  store i32 1, ptr %5, align 4
  br label %23

14:                                               ; preds = %1
  %15 = load ptr, ptr %4, align 8, !tbaa !14
  %16 = load ptr, ptr %3, align 8, !tbaa !4
  %17 = getelementptr inbounds nuw %struct._PyCfgBuilder, ptr %16, i32 0, i32 0
  store ptr %15, ptr %17, align 8, !tbaa !15
  %18 = load ptr, ptr %3, align 8, !tbaa !4
  %19 = getelementptr inbounds nuw %struct._PyCfgBuilder, ptr %18, i32 0, i32 2
  store ptr %15, ptr %19, align 8, !tbaa !16
  %20 = load ptr, ptr %3, align 8, !tbaa !4
  %21 = getelementptr inbounds nuw %struct._PyCfgBuilder, ptr %20, i32 0, i32 3
  %22 = getelementptr inbounds nuw %struct._PyJumpTargetLabel, ptr %6, i32 0, i32 0
  store i32 -1, ptr %22, align 4, !tbaa !17
  call void @llvm.memcpy.p0.p0.i64(ptr align 8 %21, ptr align 4 %6, i64 4, i1 false), !tbaa.struct !18
  store i32 0, ptr %2, align 4
  store i32 1, ptr %5, align 4
  br label %23

23:                                               ; preds = %14, %13
  call void @llvm.lifetime.end.p0(i64 8, ptr %4) #7
  %24 = load i32, ptr %2, align 4
  ret i32 %24
}

; Function Attrs: nounwind uwtable
define hidden ptr @_PyCfgBuilder_New() #0 {
  %1 = alloca ptr, align 8
  %2 = alloca ptr, align 8
  %3 = alloca i32, align 4
  call void @llvm.lifetime.start.p0(i64 8, ptr %2) #7
  %4 = call ptr @PyMem_Malloc(i64 noundef 32)
  store ptr %4, ptr %2, align 8, !tbaa !4
  %5 = load ptr, ptr %2, align 8, !tbaa !4
  %6 = icmp eq ptr %5, null
  br i1 %6, label %7, label %9

7:                                                ; preds = %0
  %8 = call ptr @PyErr_NoMemory()
  store ptr null, ptr %1, align 8
  store i32 1, ptr %3, align 4
  br label %18

9:                                                ; preds = %0
  %10 = load ptr, ptr %2, align 8, !tbaa !4
  call void @llvm.memset.p0.i64(ptr align 8 %10, i8 0, i64 32, i1 false)
  %11 = load ptr, ptr %2, align 8, !tbaa !4
  %12 = call i32 @init_cfg_builder(ptr noundef %11)
  %13 = icmp slt i32 %12, 0
  br i1 %13, label %14, label %16

14:                                               ; preds = %9
  %15 = load ptr, ptr %2, align 8, !tbaa !4
  call void @PyMem_Free(ptr noundef %15)
  store ptr null, ptr %1, align 8
  store i32 1, ptr %3, align 4
  br label %18

16:                                               ; preds = %9
  %17 = load ptr, ptr %2, align 8, !tbaa !4
  store ptr %17, ptr %1, align 8
  store i32 1, ptr %3, align 4
  br label %18

18:                                               ; preds = %16, %14, %7
  call void @llvm.lifetime.end.p0(i64 8, ptr %2) #7
  %19 = load ptr, ptr %1, align 8
  ret ptr %19
}