; Function Attrs: nounwind uwtable
define hidden ptr @_PyCfgBuilder_New() local_unnamed_addr #0 {
  %1 = tail call ptr @PyMem_Malloc(i64 noundef 32) #8
  %2 = icmp eq ptr %1, null
  br i1 %2, label %3, label %5

3:                                                ; preds = %0
  %4 = tail call ptr @PyErr_NoMemory() #8
  br label %15

5:                                                ; preds = %0
  tail call void @llvm.memset.p0.i64(ptr noundef nonnull align 8 dereferenceable(32) %1, i8 0, i64 32, i1 false)
  %6 = tail call ptr @PyMem_Calloc(i64 noundef 1, i64 noundef 72) #8
  %7 = icmp eq ptr %6, null
  br i1 %7, label %13, label %init_cfg_builder.exit

init_cfg_builder.exit:                            ; preds = %5
  %8 = getelementptr inbounds nuw i8, ptr %1, i64 8
  %9 = load ptr, ptr %8, align 8, !tbaa !4
  store ptr %9, ptr %6, align 8, !tbaa !12
  store ptr %6, ptr %8, align 8, !tbaa !4
  %10 = getelementptr inbounds nuw i8, ptr %6, i64 8
  store i32 -1, ptr %10, align 8, !tbaa !17
  store ptr %6, ptr %1, align 8, !tbaa !18
  %11 = getelementptr inbounds nuw i8, ptr %1, i64 16
  store ptr %6, ptr %11, align 8, !tbaa !19
  %12 = getelementptr inbounds nuw i8, ptr %1, i64 24
  store i32 -1, ptr %12, align 8, !tbaa !17
  br label %15

13:                                               ; preds = %5
  %14 = tail call ptr @PyErr_NoMemory() #8
  tail call void @PyMem_Free(ptr noundef nonnull %1) #8
  br label %15

15:                                               ; preds = %init_cfg_builder.exit, %13, %3
  %.0 = phi ptr [ null, %3 ], [ null, %13 ], [ %1, %init_cfg_builder.exit ]
  ret ptr %.0
}